; Function Attrs: mustprogress nounwind uwtable
define dso_local void @_ZN4llvm12ilist_traitsINS_12MachineInstrEE18removeNodeFromListEPS1_(ptr noundef nonnull readnone align 8 captures(none) dereferenceable(8) %0, ptr noundef nonnull %1) local_unnamed_addr #0 align 2 {
  %3 = tail call noundef ptr @_ZNK4llvm12MachineInstr5getMFEv(ptr noundef nonnull align 8 dereferenceable(70) %1) #29
  %.not = icmp eq ptr %3, null
  br i1 %.not, label %7, label %4

4:                                                ; preds = %2
  tail call void @_ZN4llvm15MachineFunction13handleRemovalERNS_12MachineInstrE(ptr noundef nonnull align 8 dereferenceable(1041) %3, ptr noundef nonnull align 8 dereferenceable(70) %1) #29
  %5 = getelementptr inbounds nuw i8, ptr %3, i64 32
  %6 = load ptr, ptr %5, align 8
  tail call void @_ZN4llvm12MachineInstr29removeRegOperandsFromUseListsERNS_19MachineRegisterInfoE(ptr noundef nonnull align 8 dereferenceable(70) %1, ptr noundef nonnull align 8 dereferenceable(512) %6) #29
  br label %7

7:                                                ; preds = %4, %2
  %8 = getelementptr inbounds nuw i8, ptr %1, i64 24
  store ptr null, ptr %8, align 8
  ret void
}